target datalayout = "e-m:e-p270:32:32-p271:32:32-p272:64:64-i64:64-i128:128-f80:128-n8:16:32:64-S128"
target triple = "x86_64-pc-linux-gnu"

%struct.prov_cipher_ctx_st = type { [16 x i8], [16 x i8], [16 x i8], ptr, %union.anon, i32, i64, i64, i64, i64, i32, i8, i32, ptr, i32, i64, i32, i64, i32, ptr, ptr, ptr }
%union.anon = type { ptr }
%struct.prov_cipher_hw_st = type { ptr, ptr, ptr }

@.str.1 = private unnamed_addr constant [60 x i8] c"../openssl/providers/implementations/ciphers/ciphercommon.c\00", align 1
@__func__.ossl_cipher_generic_cipher = private unnamed_addr constant [27 x i8] c"ossl_cipher_generic_cipher\00", align 1

; Function Attrs: nounwind uwtable
define i32 @ossl_cipher_generic_cipher(ptr noundef %0, ptr noundef %1, ptr noundef %2, i64 noundef %3, ptr noundef %4, i64 noundef %5) #0 {
  %7 = alloca i32, align 4
  %8 = alloca ptr, align 8
  %9 = alloca ptr, align 8
  %10 = alloca ptr, align 8
  %11 = alloca i64, align 8
  %12 = alloca ptr, align 8
  %13 = alloca i64, align 8
  %14 = alloca ptr, align 8
  %15 = alloca i32, align 4
  store ptr %0, ptr %8, align 8, !tbaa !3
  store ptr %1, ptr %9, align 8, !tbaa !25
  store ptr %2, ptr %10, align 8, !tbaa !37
  store i64 %3, ptr %11, align 8, !tbaa !11
  store ptr %4, ptr %12, align 8, !tbaa !25
  store i64 %5, ptr %13, align 8, !tbaa !11
  call void @llvm.lifetime.start.p0(i64 8, ptr %14) #7
  %16 = load ptr, ptr %8, align 8, !tbaa !3
  store ptr %16, ptr %14, align 8, !tbaa !13
  %17 = call i32 @ossl_prov_is_running()
  %18 = icmp ne i32 %17, 0
  br i1 %18, label %20, label %19

19:                                               ; preds = %6
  store i32 0, ptr %7, align 4
  store i32 1, ptr %15, align 4
  br label %50

20:                                               ; preds = %6
  %21 = load ptr, ptr %14, align 8, !tbaa !13
  %22 = getelementptr inbounds nuw %struct.prov_cipher_ctx_st, ptr %21, i32 0, i32 11
  %23 = load i8, ptr %22, align 4
  %24 = lshr i8 %23, 3
  %25 = and i8 %24, 1
  %26 = zext i8 %25 to i32
  %27 = icmp ne i32 %26, 0
  br i1 %27, label %29, label %28

28:                                               ; preds = %20
  call void @ERR_new()
  call void @ERR_set_debug(ptr noundef @.str.1, i32 noundef 581, ptr noundef @__func__.ossl_cipher_generic_cipher)
  call void (i32, i32, ptr, ...) @ERR_set_error(i32 noundef 57, i32 noundef 114, ptr noundef null)
  store i32 0, ptr %7, align 4
  store i32 1, ptr %15, align 4
  br label %50

29:                                               ; preds = %20
  %30 = load i64, ptr %11, align 8, !tbaa !11
  %31 = load i64, ptr %13, align 8, !tbaa !11
  %32 = icmp ult i64 %30, %31
  br i1 %32, label %33, label %34

33:                                               ; preds = %29
  call void @ERR_new()
  call void @ERR_set_debug(ptr noundef @.str.1, i32 noundef 586, ptr noundef @__func__.ossl_cipher_generic_cipher)
  call void (i32, i32, ptr, ...) @ERR_set_error(i32 noundef 57, i32 noundef 106, ptr noundef null)
  store i32 0, ptr %7, align 4
  store i32 1, ptr %15, align 4
  br label %50

34:                                               ; preds = %29
  %35 = load ptr, ptr %14, align 8, !tbaa !13
  %36 = getelementptr inbounds nuw %struct.prov_cipher_ctx_st, ptr %35, i32 0, i32 19
  %37 = load ptr, ptr %36, align 8, !tbaa !29
  %38 = getelementptr inbounds nuw %struct.prov_cipher_hw_st, ptr %37, i32 0, i32 1
  %39 = load ptr, ptr %38, align 8, !tbaa !44
  %40 = load ptr, ptr %14, align 8, !tbaa !13
  %41 = load ptr, ptr %9, align 8, !tbaa !25
  %42 = load ptr, ptr %12, align 8, !tbaa !25
  %43 = load i64, ptr %13, align 8, !tbaa !11
  %44 = call i32 %39(ptr noundef %40, ptr noundef %41, ptr noundef %42, i64 noundef %43)
  %45 = icmp ne i32 %44, 0
  br i1 %45, label %47, label %46

46:                                               ; preds = %34
  call void @ERR_new()
  call void @ERR_set_debug(ptr noundef @.str.1, i32 noundef 591, ptr noundef @__func__.ossl_cipher_generic_cipher)
  call void (i32, i32, ptr, ...) @ERR_set_error(i32 noundef 57, i32 noundef 102, ptr noundef null)
  store i32 0, ptr %7, align 4
  store i32 1, ptr %15, align 4
  br label %50

47:                                               ; preds = %34
  %48 = load i64, ptr %13, align 8, !tbaa !11
  %49 = load ptr, ptr %10, align 8, !tbaa !37
  store i64 %48, ptr %49, align 8, !tbaa !11
  store i32 1, ptr %7, align 4
  store i32 1, ptr %15, align 4
  br label %50

50:                                               ; preds = %47, %46, %33, %28, %19
  call void @llvm.lifetime.end.p0(i64 8, ptr %14) #7
  %51 = load i32, ptr %7, align 4
  ret i32 %51
}