; Function Attrs: nounwind uwtable
define range(i32 0, 2) i32 @ossl_cipher_generic_cipher(ptr noundef %0, ptr noundef %1, ptr noundef writeonly captures(none) %2, i64 noundef %3, ptr noundef %4, i64 noundef %5) local_unnamed_addr #1 {
  %7 = tail call i32 @ossl_prov_is_running() #6
  %.not = icmp eq i32 %7, 0
  br i1 %.not, label %24, label %8

8:                                                ; preds = %6
  %9 = getelementptr inbounds nuw i8, ptr %0, i64 108
  %10 = load i8, ptr %9, align 4
  %11 = and i8 %10, 8
  %.not12 = icmp eq i8 %11, 0
  br i1 %.not12, label %12, label %13

12:                                               ; preds = %8
  tail call void @ERR_new() #6
  tail call void @ERR_set_debug(ptr noundef nonnull @.str.1, i32 noundef 581, ptr noundef nonnull @__func__.ossl_cipher_generic_cipher) #6
  tail call void (i32, i32, ptr, ...) @ERR_set_error(i32 noundef 57, i32 noundef 114, ptr noundef null) #6
  br label %24

13:                                               ; preds = %8
  %14 = icmp ult i64 %3, %5
  br i1 %14, label %15, label %16

15:                                               ; preds = %13
  tail call void @ERR_new() #6
  tail call void @ERR_set_debug(ptr noundef nonnull @.str.1, i32 noundef 586, ptr noundef nonnull @__func__.ossl_cipher_generic_cipher) #6
  tail call void (i32, i32, ptr, ...) @ERR_set_error(i32 noundef 57, i32 noundef 106, ptr noundef null) #6
  br label %24

16:                                               ; preds = %13
  %17 = getelementptr inbounds nuw i8, ptr %0, i64 168
  %18 = load ptr, ptr %17, align 8, !tbaa !23
  %19 = getelementptr inbounds nuw i8, ptr %18, i64 8
  %20 = load ptr, ptr %19, align 8, !tbaa !35
  %21 = tail call i32 %20(ptr noundef nonnull %0, ptr noundef %1, ptr noundef %4, i64 noundef %5) #6
  %.not13 = icmp eq i32 %21, 0
  br i1 %.not13, label %22, label %23

22:                                               ; preds = %16
  tail call void @ERR_new() #6
  tail call void @ERR_set_debug(ptr noundef nonnull @.str.1, i32 noundef 591, ptr noundef nonnull @__func__.ossl_cipher_generic_cipher) #6
  tail call void (i32, i32, ptr, ...) @ERR_set_error(i32 noundef 57, i32 noundef 102, ptr noundef null) #6
  br label %24

23:                                               ; preds = %16
  store i64 %5, ptr %2, align 8, !tbaa !15
  br label %24

24:                                               ; preds = %6, %23, %22, %15, %12
  %.0 = phi i32 [ 0, %15 ], [ 1, %23 ], [ 0, %22 ], [ 0, %12 ], [ 0, %6 ]
  ret i32 %.0
}